(dp0
S'refTime'
p1
F1511367342.996065
sS'firstTime'
p2
I0
sS'refTimePh'
p3
F1511367511.568086
sS'lightsOff'
p4
I0
sS'lightsOn'
p5
I1
sS'motorOn'
p6
I0
sS'refTimeLight'
p7
F1511367513.769717
sS'phCounter'
p8
I1
sS'refTimeWat'
p9
F1511367302.996065
s.