(dp0
S'firstTime'
p1
I0
sS'refTimePh'
p2
F1511362622.505378
sS'lightsOff'
p3
I0
sS'motorOn'
p4
I0
sS'refTime'
p5
F1511391422.505378
sS'lightsOn'
p6
I0
sS'refTimeLight'
p7
F1511391462.505378
sS'phCounter'
p8
I01
sS'refTimeWat'
p9
F1511391382.505378
s.