(dp0
S'firstTime'
p1
I0
sS'refTimePh'
p2
F1511214726.917001
sS'lightsOff'
p3
I1
sS'motorOn'
p4
I1
sS'refTime'
p5
F1511214647.188482
sS'lightsOn'
p6
I0
sS'refTimeLight'
p7
F1511215934.347419
sS'refTimeWat'
p8
F1511215931.700989
s.