(dp0
S'firstTime'
p1
I0
sS'refTimePh'
p2
F1511369178.034485
sS'lightsOff'
p3
I0
sS'motorOn'
p4
I0
sS'refTime'
p5
F1511367342.996065
sS'lightsOn'
p6
I1
sS'refTimeLight'
p7
F1511367513.769717
sS'phCounter'
p8
I2
sS'refTimeWat'
p9
F1511367302.996065
s.