(dp0
S'refTime'
p1
F1511372640.574499
sS'firstTime'
p2
I0
sS'refTimePh'
p3
F1511343840.574499
sS'lightsOff'
p4
I0
sS'lightsOn'
p5
I0
sS'motorOn'
p6
I0
sS'refTimeLight'
p7
F1511372680.574499
sS'phCounter'
p8
I1
sS'refTimeWat'
p9
F1511372600.574499
s.