(dp0
S'refTime'
p1
F1511391422.505378
sS'firstTime'
p2
I0
sS'refTimePh'
p3
F1511362622.505378
sS'lightsOff'
p4
I0
sS'lightsOn'
p5
I0
sS'motorOn'
p6
I0
sS'refTimeLight'
p7
F1511391462.505378
sS'phCounter'
p8
I1
sS'refTimeWat'
p9
F1511391382.505378
s.