(dp0
S'firstTime'
p1
I0
sS'refTimePh'
p2
F1511511715.491397
sS'lightsOff'
p3
I0
sS'motorOn'
p4
I0
sS'refTime'
p5
F1511506434.974534
sS'lightsOn'
p6
I1
sS'refTimeLight'
p7
F1511510710.56911
sS'phCounter'
p8
I2
sS'refTimeWat'
p9
F1511511715.491428
s.