(dp0
S'refTime'
p1
F1511552420.908906
sS'firstTime'
p2
I0
sS'refTimePh'
p3
F1511552467.746149
sS'lightsOff'
p4
I0
sS'lightsOn'
p5
I1
sS'motorOn'
p6
I0
sS'refTimeLight'
p7
F1511552473.443796
sS'phCounter'
p8
I1
sS'refTimeWat'
p9
F1511552380.908906
s.